; Function Attrs: nounwind uwtable
define internal void @querycbfunc(i32 noundef %0, ptr noundef %1, i64 noundef %2, ptr noundef initializes((224, 228)) %3, ptr noundef readonly captures(address_is_null) %4, ptr noundef %5) #0 {
  %7 = getelementptr inbounds nuw i8, ptr %3, i64 224
  store i32 %0, ptr %7, align 8, !tbaa !57
  %.not = icmp eq i64 %2, 0
  br i1 %.not, label %.loopexit, label %8

8:                                                ; preds = %6
  %9 = tail call ptr @PMIx_Info_create(i64 noundef %2) #13
  %10 = getelementptr inbounds nuw i8, ptr %3, i64 232
  store ptr %9, ptr %10, align 8, !tbaa !58
  %11 = getelementptr inbounds nuw i8, ptr %3, i64 240
  store i64 %2, ptr %11, align 8, !tbaa !72
  br label %12

12:                                               ; preds = %8, %12
  %.024 = phi i64 [ 0, %8 ], [ %17, %12 ]
  %13 = load ptr, ptr %10, align 8, !tbaa !58
  %14 = getelementptr inbounds nuw %struct.pmix_info, ptr %13, i64 %.024
  %15 = getelementptr inbounds nuw %struct.pmix_info, ptr %1, i64 %.024
  %16 = tail call i32 @PMIx_Info_xfer(ptr noundef %14, ptr noundef %15) #13
  %17 = add nuw i64 %.024, 1
  %exitcond.not = icmp eq i64 %17, %2
  br i1 %exitcond.not, label %.loopexit, label %12, !llvm.loop !73

.loopexit:                                        ; preds = %12, %6
  %.not23 = icmp eq ptr %4, null
  br i1 %.not23, label %19, label %18

18:                                               ; preds = %.loopexit
  tail call void %4(ptr noundef %5) #13
  br label %19

19:                                               ; preds = %.loopexit, %18
  %20 = getelementptr inbounds nuw i8, ptr %3, i64 128
  %21 = tail call i32 @pthread_mutex_lock(ptr noundef nonnull %20) #13
  %22 = getelementptr inbounds nuw i8, ptr %3, i64 216
  store volatile i8 0, ptr %22, align 8, !tbaa !54
  fence release
  %23 = getelementptr inbounds nuw i8, ptr %3, i64 168
  %24 = tail call i32 @pthread_cond_broadcast(ptr noundef nonnull %23) #13
  %25 = tail call i32 @pthread_mutex_unlock(ptr noundef nonnull %20) #13
  ret void
}